target datalayout = "e-m:e-p270:32:32-p271:32:32-p272:64:64-i64:64-i128:128-f80:128-n8:16:32:64-S128"
target triple = "x86_64-pc-linux-gnu"

%struct.clone_method_arg = type { i64, i64 }
%struct.rb_method_entry_struct = type { i64, i64, ptr, i64, i64 }
%struct.rb_method_definition_struct = type { i64, %union.anon.15, i64, i64 }
%union.anon.15 = type { %struct.rb_method_cfunc_struct }
%struct.rb_method_cfunc_struct = type { ptr, ptr, i32 }
%struct.rb_method_iseq_struct = type { ptr, ptr }

; Function Attrs: nounwind sspstrong uwtable
define internal void @clone_method(i64 noundef %0, i64 noundef %1, i64 noundef %2, ptr noundef %3) #0 {
  %5 = alloca i64, align 8
  %6 = alloca i64, align 8
  %7 = alloca i64, align 8
  %8 = alloca ptr, align 8
  %9 = alloca ptr, align 8
  store i64 %0, ptr %5, align 8, !tbaa !7
  store i64 %1, ptr %6, align 8, !tbaa !7
  store i64 %2, ptr %7, align 8, !tbaa !7
  store ptr %3, ptr %8, align 8, !tbaa !96
  %10 = load ptr, ptr %8, align 8, !tbaa !96
  %11 = getelementptr inbounds nuw %struct.rb_method_entry_struct, ptr %10, i32 0, i32 2
  %12 = load ptr, ptr %11, align 8, !tbaa !100
  %13 = load i64, ptr %12, align 8
  %14 = and i64 %13, 15
  %15 = trunc i64 %14 to i32
  %16 = icmp eq i32 %15, 0
  br i1 %16, label %17, label %41

17:                                               ; preds = %4
  call void @llvm.lifetime.start.p0(i64 8, ptr %9) #23
  %18 = load ptr, ptr %8, align 8, !tbaa !96
  %19 = getelementptr inbounds nuw %struct.rb_method_entry_struct, ptr %18, i32 0, i32 2
  %20 = load ptr, ptr %19, align 8, !tbaa !100
  %21 = getelementptr inbounds nuw %struct.rb_method_definition_struct, ptr %20, i32 0, i32 1
  %22 = getelementptr inbounds nuw %struct.rb_method_iseq_struct, ptr %21, i32 0, i32 1
  %23 = load ptr, ptr %22, align 8, !tbaa !50
  %24 = load i64, ptr %5, align 8, !tbaa !7
  %25 = load i64, ptr %6, align 8, !tbaa !7
  call void @rb_vm_rewrite_cref(ptr noundef %23, i64 noundef %24, i64 noundef %25, ptr noundef %9)
  %26 = load i64, ptr %6, align 8, !tbaa !7
  %27 = load i64, ptr %7, align 8, !tbaa !7
  %28 = load ptr, ptr %8, align 8, !tbaa !96
  %29 = getelementptr inbounds nuw %struct.rb_method_entry_struct, ptr %28, i32 0, i32 2
  %30 = load ptr, ptr %29, align 8, !tbaa !100
  %31 = getelementptr inbounds nuw %struct.rb_method_definition_struct, ptr %30, i32 0, i32 1
  %32 = getelementptr inbounds nuw %struct.rb_method_iseq_struct, ptr %31, i32 0, i32 0
  %33 = load ptr, ptr %32, align 8, !tbaa !50
  %34 = load ptr, ptr %9, align 8, !tbaa !140
  %35 = load ptr, ptr %8, align 8, !tbaa !96
  %36 = getelementptr inbounds nuw %struct.rb_method_entry_struct, ptr %35, i32 0, i32 0
  %37 = load i64, ptr %36, align 8, !tbaa !104
  %38 = and i64 %37, 196608
  %39 = lshr i64 %38, 16
  %40 = trunc i64 %39 to i32
  call void @rb_add_method_iseq(i64 noundef %26, i64 noundef %27, ptr noundef %33, ptr noundef %34, i32 noundef %40)
  call void @llvm.lifetime.end.p0(i64 8, ptr %9) #23
  br label %52

41:                                               ; preds = %4
  %42 = load i64, ptr %6, align 8, !tbaa !7
  %43 = load i64, ptr %7, align 8, !tbaa !7
  %44 = load ptr, ptr %8, align 8, !tbaa !96
  %45 = load ptr, ptr %8, align 8, !tbaa !96
  %46 = getelementptr inbounds nuw %struct.rb_method_entry_struct, ptr %45, i32 0, i32 0
  %47 = load i64, ptr %46, align 8, !tbaa !104
  %48 = and i64 %47, 196608
  %49 = lshr i64 %48, 16
  %50 = trunc i64 %49 to i32
  %51 = call ptr @rb_method_entry_set(i64 noundef %42, i64 noundef %43, ptr noundef %44, i32 noundef %50)
  br label %52

52:                                               ; preds = %41, %17
  ret void
}

; Function Attrs: nounwind sspstrong uwtable
define internal i32 @clone_method_i(i64 noundef %0, i64 noundef %1, ptr noundef %2) #0 {
  %4 = alloca i64, align 8
  %5 = alloca i64, align 8
  %6 = alloca ptr, align 8
  %7 = alloca ptr, align 8
  store i64 %0, ptr %4, align 8, !tbaa !7
  store i64 %1, ptr %5, align 8, !tbaa !7
  store ptr %2, ptr %6, align 8, !tbaa !29
  call void @llvm.lifetime.start.p0(i64 8, ptr %7) #23
  %8 = load ptr, ptr %6, align 8, !tbaa !29
  store ptr %8, ptr %7, align 8, !tbaa !59
  %9 = load ptr, ptr %7, align 8, !tbaa !59
  %10 = getelementptr inbounds nuw %struct.clone_method_arg, ptr %9, i32 0, i32 1
  %11 = load i64, ptr %10, align 8, !tbaa !43
  %12 = load ptr, ptr %7, align 8, !tbaa !59
  %13 = getelementptr inbounds nuw %struct.clone_method_arg, ptr %12, i32 0, i32 0
  %14 = load i64, ptr %13, align 8, !tbaa !45
  %15 = load i64, ptr %4, align 8, !tbaa !7
  %16 = load i64, ptr %5, align 8, !tbaa !7
  %17 = inttoptr i64 %16 to ptr
  call void @clone_method(i64 noundef %11, i64 noundef %14, i64 noundef %15, ptr noundef %17)
  call void @llvm.lifetime.end.p0(i64 8, ptr %7) #23
  ret i32 0
}