; Function Attrs: nounwind sspstrong uwtable
define internal noundef i32 @clone_method_i(i64 noundef %0, i64 noundef %1, ptr noundef readonly captures(none) %2) #0 {
  %4 = alloca ptr, align 8
  %5 = load i64, ptr %2, align 8, !tbaa !45
  %6 = inttoptr i64 %1 to ptr
  %7 = getelementptr inbounds nuw i8, ptr %6, i64 16
  %8 = load ptr, ptr %7, align 8, !tbaa !57
  %9 = load i64, ptr %8, align 8
  %10 = and i64 %9, 15
  %11 = icmp eq i64 %10, 0
  br i1 %11, label %12, label %25

12:                                               ; preds = %3
  %13 = getelementptr inbounds nuw i8, ptr %2, i64 8
  %14 = load i64, ptr %13, align 8, !tbaa !43
  call void @llvm.lifetime.start.p0(i64 8, ptr nonnull %4) #19
  %15 = getelementptr inbounds nuw i8, ptr %8, i64 16
  %16 = load ptr, ptr %15, align 8, !tbaa !32
  call void @rb_vm_rewrite_cref(ptr noundef %16, i64 noundef %14, i64 noundef %5, ptr noundef nonnull %4) #19
  %17 = load ptr, ptr %7, align 8, !tbaa !57
  %18 = getelementptr inbounds nuw i8, ptr %17, i64 8
  %19 = load ptr, ptr %18, align 8, !tbaa !32
  %20 = load ptr, ptr %4, align 8, !tbaa !60
  %21 = load i64, ptr %6, align 8, !tbaa !62
  %22 = trunc i64 %21 to i32
  %23 = lshr i32 %22, 16
  %24 = and i32 %23, 3
  call void @rb_add_method_iseq(i64 noundef %5, i64 noundef %0, ptr noundef %19, ptr noundef %20, i32 noundef %24) #19
  call void @llvm.lifetime.end.p0(i64 8, ptr nonnull %4) #19
  br label %clone_method.exit

25:                                               ; preds = %3
  %26 = load i64, ptr %6, align 8, !tbaa !62
  %27 = trunc i64 %26 to i32
  %28 = lshr i32 %27, 16
  %29 = and i32 %28, 3
  %30 = tail call ptr @rb_method_entry_set(i64 noundef %5, i64 noundef %0, ptr noundef nonnull %6, i32 noundef %29) #19
  br label %clone_method.exit

clone_method.exit:                                ; preds = %12, %25
  ret i32 0
}